
SecuritySystem.elf:     file format elf32-avr

Sections:
Idx Name          Size      VMA       LMA       File off  Algn
  0 .data         00000000  00800100  00800100  00000af0  2**0
                  ALLOC, LOAD, DATA
  1 .text         00000102  00000000  00000000  00000114  2**1
                  CONTENTS, ALLOC, LOAD, READONLY, CODE
  2 .bss          00000002  00800100  00800100  00000af0  2**0
                  ALLOC
  3 .comment      0000002f  00000000  00000000  00000af0  2**0
                  CONTENTS, READONLY
  4 .debug_aranges 00000230  00000000  00000000  00000b1f  2**0
                  CONTENTS, READONLY, DEBUGGING
  5 .debug_info   00002eee  00000000  00000000  00000d4f  2**0
                  CONTENTS, READONLY, DEBUGGING
  6 .debug_abbrev 00000f79  00000000  00000000  00003c3d  2**0
                  CONTENTS, READONLY, DEBUGGING
  7 .debug_line   0000103e  00000000  00000000  00004bb6  2**0
                  CONTENTS, READONLY, DEBUGGING
  8 .debug_frame  000004c0  00000000  00000000  00005bf4  2**2
                  CONTENTS, READONLY, DEBUGGING
  9 .debug_str    000003f7  00000000  00000000  000060b4  2**0
                  CONTENTS, READONLY, DEBUGGING
 10 .debug_loc    000008ca  00000000  00000000  000064ab  2**0
                  CONTENTS, READONLY, DEBUGGING
 11 .debug_ranges 000001a0  00000000  00000000  00006d75  2**0
                  CONTENTS, READONLY, DEBUGGING
 12 .text         00000004  000009d2  000009d2  00000ae6  2**1
                  CONTENTS, ALLOC, LOAD, READONLY, CODE
 13 .note.gnu.avr.deviceinfo 0000003c  00000000  00000000  00006f18  2**2
                  CONTENTS, READONLY, DEBUGGING
 14 .text.Eight7seg_displayOn 0000001a  000008a2  000008a2  000009b6  2**1
                  CONTENTS, ALLOC, LOAD, READONLY, CODE
 15 .text.Eight7seg_displayOff 0000001a  000008bc  000008bc  000009d0  2**1
                  CONTENTS, ALLOC, LOAD, READONLY, CODE
 16 .text.Eight7seg_blink 0000003a  000006be  000006be  000007d2  2**1
                  CONTENTS, ALLOC, LOAD, READONLY, CODE
 17 .text.Eight7seg_writeToDisplay 00000030  00000730  00000730  00000844  2**1
                  CONTENTS, ALLOC, LOAD, READONLY, CODE
 18 .text.Eight7seg_reset 00000020  000007d0  000007d0  000008e4  2**1
                  CONTENTS, ALLOC, LOAD, READONLY, CODE
 19 .text.Eight7seg_Init 0000005a  000003ca  000003ca  000004de  2**1
                  CONTENTS, ALLOC, LOAD, READONLY, CODE
 20 .text.adc_init 0000000e  00000986  00000986  00000a9a  2**1
                  CONTENTS, ALLOC, LOAD, READONLY, CODE
 21 .text.adc_deinit 00000008  000009b4  000009b4  00000ac8  2**1
                  CONTENTS, ALLOC, LOAD, READONLY, CODE
 22 .text.ADCLaserIO_start 00000046  0000056e  0000056e  00000682  2**1
                  CONTENTS, ALLOC, LOAD, READONLY, CODE
 23 .text.ADCLaserIO_stop 0000000c  00000994  00000994  00000aa8  2**1
                  CONTENTS, ALLOC, LOAD, READONLY, CODE
 24 .text.__vector_21 0000008c  000002c4  000002c4  000003d8  2**1
                  CONTENTS, ALLOC, LOAD, READONLY, CODE
 25 .text.__vector_16 00000014  0000094e  0000094e  00000a62  2**1
                  CONTENTS, ALLOC, LOAD, READONLY, CODE
 26 .bss.callback 00000002  0080010e  0080010e  00000af0  2**0
                  ALLOC
 27 .text.Buzzert_init 00000012  00000962  00000962  00000a76  2**1
                  CONTENTS, ALLOC, LOAD, READONLY, CODE
 28 .text.Buzzert_start 0000000a  000009a0  000009a0  00000ab4  2**1
                  CONTENTS, ALLOC, LOAD, READONLY, CODE
 29 .text.Buzzert_stop 00000006  000009cc  000009cc  00000ae0  2**1
                  CONTENTS, ALLOC, LOAD, READONLY, CODE
 30 .text.Keypad_reset 0000001e  00000810  00000810  00000924  2**1
                  CONTENTS, ALLOC, LOAD, READONLY, CODE
 31 .text.Keypad_unlock 0000007a  00000350  00000350  00000464  2**1
                  CONTENTS, ALLOC, LOAD, READONLY, CODE
 32 .text.Keypad_rotate 000000a0  00000224  00000224  00000338  2**1
                  CONTENTS, ALLOC, LOAD, READONLY, CODE
 33 .text.Keypad_init 00000020  000007f0  000007f0  00000904  2**1
                  CONTENTS, ALLOC, LOAD, READONLY, CODE
 34 .text.Keypad_checkKey 00000058  00000424  00000424  00000538  2**1
                  CONTENTS, ALLOC, LOAD, READONLY, CODE
 35 .bss.locked   00000002  00800110  00800110  00000af0  2**0
                  ALLOC
 36 .bss.inputIndex 00000002  00800112  00800112  00000af0  2**0
                  ALLOC
 37 .data.side    00000002  00800114  000009da  00000aee  2**0
                  CONTENTS, ALLOC, LOAD, DATA
 38 .bss.currentNumber 00000002  00800116  00800116  00000af0  2**0
                  ALLOC
 39 .bss.inputcode 00000008  00800102  00800102  00000af0  2**0
                  ALLOC
 40 .progmemx.data.passcode 00000008  00000137  00000137  0000024b  2**0
                  CONTENTS, ALLOC, LOAD, READONLY, PROGMEMX
 41 .bss.wrongCode_callback 00000002  00800118  00800118  00000af0  2**0
                  ALLOC
 42 .bss.unlocked_callback 00000002  0080011a  0080011a  00000af0  2**0
                  ALLOC
 43 .bss.locked_callback 00000002  0080011c  0080011c  00000af0  2**0
                  ALLOC
 44 .text.lcd_strobe_lcd_e 0000001e  0000082e  0000082e  00000942  2**1
                  CONTENTS, ALLOC, LOAD, READONLY, CODE
 45 .text.init_4bits_mode 00000042  0000063e  0000063e  00000752  2**1
                  CONTENTS, ALLOC, LOAD, READONLY, CODE
 46 .text.lcd_write_data 00000024  00000788  00000788  0000089c  2**1
                  CONTENTS, ALLOC, LOAD, READONLY, CODE
 47 .text.display_text 0000001a  000008d6  000008d6  000009ea  2**1
                  CONTENTS, ALLOC, LOAD, READONLY, CODE
 48 .text.lcd_write_command 00000024  000007ac  000007ac  000008c0  2**1
                  CONTENTS, ALLOC, LOAD, READONLY, CODE
 49 .text.lcd_clear 0000001a  000008f0  000008f0  00000a04  2**1
                  CONTENTS, ALLOC, LOAD, READONLY, CODE
 50 .text.lcd_init 0000001c  0000086a  0000086a  0000097e  2**1
                  CONTENTS, ALLOC, LOAD, READONLY, CODE
 51 .progmemx.data 00000035  00000102  00000102  00000216  2**0
                  CONTENTS, ALLOC, LOAD, READONLY, PROGMEMX
 52 .text.main_lcd_wrongCode 00000046  000005b4  000005b4  000006c8  2**1
                  CONTENTS, ALLOC, LOAD, READONLY, CODE
 53 .text.main_alarm 00000044  000005fa  000005fa  0000070e  2**1
                  CONTENTS, ALLOC, LOAD, READONLY, CODE
 54 .text.main_laserCallback 00000052  0000047c  0000047c  00000590  2**1
                  CONTENTS, ALLOC, LOAD, READONLY, CODE
 55 .text.main_lcd_locked 00000052  000004ce  000004ce  000005e2  2**1
                  CONTENTS, ALLOC, LOAD, READONLY, CODE
 56 .text.main_start_laser 0000000a  000009aa  000009aa  00000abe  2**1
                  CONTENTS, ALLOC, LOAD, READONLY, CODE
 57 .text.main_lcd_unlocked 0000004e  00000520  00000520  00000634  2**1
                  CONTENTS, ALLOC, LOAD, READONLY, CODE
 58 .text.main    00000038  000006f8  000006f8  0000080c  2**1
                  CONTENTS, ALLOC, LOAD, READONLY, CODE
 59 .text.spi_masterInit 00000016  00000922  00000922  00000a36  2**1
                  CONTENTS, ALLOC, LOAD, READONLY, CODE
 60 .text.spi_write 00000008  000009bc  000009bc  00000ad0  2**1
                  CONTENTS, ALLOC, LOAD, READONLY, CODE
 61 .text.spi_slaveSelect 00000018  0000090a  0000090a  00000a1e  2**1
                  CONTENTS, ALLOC, LOAD, READONLY, CODE
 62 .text.spi_slaveDeSelect 00000016  00000938  00000938  00000a4c  2**1
                  CONTENTS, ALLOC, LOAD, READONLY, CODE
 63 .text.Timer_init 0000003e  00000680  00000680  00000794  2**1
                  CONTENTS, ALLOC, LOAD, READONLY, CODE
 64 .text.Timer_deInit 00000008  000009c4  000009c4  00000ad8  2**1
                  CONTENTS, ALLOC, LOAD, READONLY, CODE
 65 .text.__vector_9 000000e4  00000140  00000140  00000254  2**1
                  CONTENTS, ALLOC, LOAD, READONLY, CODE
 66 .bss.alarmCallback 00000002  0080011e  0080011e  00000af0  2**0
                  ALLOC
 67 .data.remainingTime 00000004  0080010a  000009d6  00000aea  2**0
                  CONTENTS, ALLOC, LOAD, DATA
 68 .text.waitFunction 0000001e  0000084c  0000084c  00000960  2**1
                  CONTENTS, ALLOC, LOAD, READONLY, CODE
 69 .text.libgcc.div 00000028  00000760  00000760  00000874  2**1
                  CONTENTS, ALLOC, LOAD, READONLY, CODE
 70 .text.libgcc  00000012  00000974  00000974  00000a88  2**1
                  CONTENTS, ALLOC, LOAD, READONLY, CODE
 71 .text.libgcc  0000001c  00000886  00000886  0000099a  2**1
                  CONTENTS, ALLOC, LOAD, READONLY, CODE

Disassembly of section .text:

00000000 <__vectors>:
   0:	0c 94 55 00 	jmp	0xaa	; 0xaa <__ctors_end>
   4:	0c 94 e9 04 	jmp	0x9d2	; 0x9d2 <__bad_interrupt>
   8:	0c 94 e9 04 	jmp	0x9d2	; 0x9d2 <__bad_interrupt>
   c:	0c 94 e9 04 	jmp	0x9d2	; 0x9d2 <__bad_interrupt>
  10:	0c 94 e9 04 	jmp	0x9d2	; 0x9d2 <__bad_interrupt>
  14:	0c 94 e9 04 	jmp	0x9d2	; 0x9d2 <__bad_interrupt>
  18:	0c 94 e9 04 	jmp	0x9d2	; 0x9d2 <__bad_interrupt>
  1c:	0c 94 e9 04 	jmp	0x9d2	; 0x9d2 <__bad_interrupt>
  20:	0c 94 e9 04 	jmp	0x9d2	; 0x9d2 <__bad_interrupt>
  24:	0c 94 a0 00 	jmp	0x140	; 0x140 <__vector_9>
  28:	0c 94 e9 04 	jmp	0x9d2	; 0x9d2 <__bad_interrupt>
  2c:	0c 94 e9 04 	jmp	0x9d2	; 0x9d2 <__bad_interrupt>
  30:	0c 94 e9 04 	jmp	0x9d2	; 0x9d2 <__bad_interrupt>
  34:	0c 94 e9 04 	jmp	0x9d2	; 0x9d2 <__bad_interrupt>
  38:	0c 94 e9 04 	jmp	0x9d2	; 0x9d2 <__bad_interrupt>
  3c:	0c 94 e9 04 	jmp	0x9d2	; 0x9d2 <__bad_interrupt>
  40:	0c 94 a7 04 	jmp	0x94e	; 0x94e <__vector_16>
  44:	0c 94 e9 04 	jmp	0x9d2	; 0x9d2 <__bad_interrupt>
  48:	0c 94 e9 04 	jmp	0x9d2	; 0x9d2 <__bad_interrupt>
  4c:	0c 94 e9 04 	jmp	0x9d2	; 0x9d2 <__bad_interrupt>
  50:	0c 94 e9 04 	jmp	0x9d2	; 0x9d2 <__bad_interrupt>
  54:	0c 94 62 01 	jmp	0x2c4	; 0x2c4 <__vector_21>
  58:	0c 94 e9 04 	jmp	0x9d2	; 0x9d2 <__bad_interrupt>
  5c:	0c 94 e9 04 	jmp	0x9d2	; 0x9d2 <__bad_interrupt>
  60:	0c 94 e9 04 	jmp	0x9d2	; 0x9d2 <__bad_interrupt>
  64:	0c 94 e9 04 	jmp	0x9d2	; 0x9d2 <__bad_interrupt>
  68:	0c 94 e9 04 	jmp	0x9d2	; 0x9d2 <__bad_interrupt>
  6c:	0c 94 e9 04 	jmp	0x9d2	; 0x9d2 <__bad_interrupt>
  70:	0c 94 e9 04 	jmp	0x9d2	; 0x9d2 <__bad_interrupt>
  74:	0c 94 e9 04 	jmp	0x9d2	; 0x9d2 <__bad_interrupt>
  78:	0c 94 e9 04 	jmp	0x9d2	; 0x9d2 <__bad_interrupt>
  7c:	0c 94 e9 04 	jmp	0x9d2	; 0x9d2 <__bad_interrupt>
  80:	0c 94 e9 04 	jmp	0x9d2	; 0x9d2 <__bad_interrupt>
  84:	0c 94 e9 04 	jmp	0x9d2	; 0x9d2 <__bad_interrupt>
  88:	0c 94 e9 04 	jmp	0x9d2	; 0x9d2 <__bad_interrupt>

0000008c <.dinit>:
  8c:	01 00       	.word	0x0001	; ????
  8e:	01 0a       	sbc	r0, r17
  90:	80 01       	movw	r16, r0
  92:	0a 01       	movw	r0, r20
  94:	0e 00       	.word	0x000e	; ????
  96:	09 d6       	rcall	.+3090   	; 0xcaa <__bad_interrupt+0x2d8>
  98:	01 0e       	add	r0, r17
  9a:	01 14       	cp	r0, r1
  9c:	80 01       	movw	r16, r0
  9e:	14 01       	movw	r2, r8
  a0:	16 00       	.word	0x0016	; ????
  a2:	09 da       	rcall	.-3054   	; 0xfffff4b6 <__eeprom_end+0xff7ef4b6>
  a4:	01 16       	cp	r0, r17
  a6:	01 20       	and	r0, r1
  a8:	80 00       	.word	0x0080	; ????

000000aa <__ctors_end>:
  aa:	11 24       	eor	r1, r1
  ac:	1f be       	out	0x3f, r1	; 63
  ae:	cf ef       	ldi	r28, 0xFF	; 255
  b0:	d0 e1       	ldi	r29, 0x10	; 16
  b2:	de bf       	out	0x3e, r29	; 62
  b4:	cd bf       	out	0x3d, r28	; 61

000000b6 <__do_copy_data>:
  b6:	ec e8       	ldi	r30, 0x8C	; 140
  b8:	f0 e0       	ldi	r31, 0x00	; 0
  ba:	40 e0       	ldi	r20, 0x00	; 0
  bc:	19 c0       	rjmp	.+50     	; 0xf0 <__do_clear_bss+0x8>
  be:	b7 91       	elpm	r27, Z+
  c0:	a7 91       	elpm	r26, Z+
  c2:	37 91       	elpm	r19, Z+
  c4:	27 91       	elpm	r18, Z+
  c6:	07 91       	elpm	r16, Z+
  c8:	07 fd       	sbrc	r16, 7
  ca:	0e c0       	rjmp	.+28     	; 0xe8 <__do_clear_bss>
  cc:	97 91       	elpm	r25, Z+
  ce:	87 91       	elpm	r24, Z+
  d0:	ef 01       	movw	r28, r30
  d2:	f9 2f       	mov	r31, r25
  d4:	e8 2f       	mov	r30, r24
  d6:	0b bf       	out	0x3b, r16	; 59
  d8:	07 90       	elpm	r0, Z+
  da:	0d 92       	st	X+, r0
  dc:	a2 17       	cp	r26, r18
  de:	b3 07       	cpc	r27, r19
  e0:	d9 f7       	brne	.-10     	; 0xd8 <__do_copy_data+0x22>
  e2:	fe 01       	movw	r30, r28
  e4:	1b be       	out	0x3b, r1	; 59
  e6:	04 c0       	rjmp	.+8      	; 0xf0 <__do_clear_bss+0x8>

000000e8 <__do_clear_bss>:
  e8:	1d 92       	st	X+, r1
  ea:	a2 17       	cp	r26, r18
  ec:	b3 07       	cpc	r27, r19
  ee:	e1 f7       	brne	.-8      	; 0xe8 <__do_clear_bss>
  f0:	e9 3a       	cpi	r30, 0xA9	; 169
  f2:	f4 07       	cpc	r31, r20
  f4:	21 f7       	brne	.-56     	; 0xbe <__do_copy_data+0x8>
  f6:	0e 94 7c 03 	call	0x6f8	; 0x6f8 <main>
  fa:	0c 94 7f 00 	jmp	0xfe	; 0xfe <_exit>

000000fe <_exit>:
  fe:	f8 94       	cli

00000100 <__stop_program>:
 100:	ff cf       	rjmp	.-2      	; 0x100 <__stop_program>

Disassembly of section .text:

000009d2 <__bad_interrupt>:
 9d2:	0c 94 00 00 	jmp	0	; 0x0 <__TEXT_REGION_ORIGIN__>

Disassembly of section .text.Eight7seg_displayOn:

000008a2 <Eight7seg_displayOn>:
}

// Set display on ('normal operation')
void Eight7seg_displayOn()
{
	spi_slaveSelect(slaveAddress);				// Select display chip
 8a2:	80 e0       	ldi	r24, 0x00	; 0
 8a4:	0e 94 85 04 	call	0x90a	; 0x90a <spi_slaveSelect>
	spi_write(0x0C); 				// Register 0B: Shutdown register
 8a8:	8c e0       	ldi	r24, 0x0C	; 12
 8aa:	0e 94 de 04 	call	0x9bc	; 0x9bc <spi_write>
	spi_write(0x01); 				// 	-> 1 = Normal operation
 8ae:	81 e0       	ldi	r24, 0x01	; 1
 8b0:	0e 94 de 04 	call	0x9bc	; 0x9bc <spi_write>
	spi_slaveDeSelect(slaveAddress);			// De select display chip
 8b4:	80 e0       	ldi	r24, 0x00	; 0
 8b6:	0e 94 9c 04 	call	0x938	; 0x938 <spi_slaveDeSelect>
 8ba:	08 95       	ret

Disassembly of section .text.Eight7seg_displayOff:

000008bc <Eight7seg_displayOff>:
}

// Set display off ('shut down')
void Eight7seg_displayOff()
{
	spi_slaveSelect(slaveAddress);				// Select display chip
 8bc:	80 e0       	ldi	r24, 0x00	; 0
 8be:	0e 94 85 04 	call	0x90a	; 0x90a <spi_slaveSelect>
	spi_write(0x0C); 				// Register 0B: Shutdown register
 8c2:	8c e0       	ldi	r24, 0x0C	; 12
 8c4:	0e 94 de 04 	call	0x9bc	; 0x9bc <spi_write>
	spi_write(0x00); 				// 	-> 1 = Normal operation
 8c8:	80 e0       	ldi	r24, 0x00	; 0
 8ca:	0e 94 de 04 	call	0x9bc	; 0x9bc <spi_write>
	spi_slaveDeSelect(slaveAddress);			// De select display chip
 8ce:	80 e0       	ldi	r24, 0x00	; 0
 8d0:	0e 94 9c 04 	call	0x938	; 0x938 <spi_slaveDeSelect>
 8d4:	08 95       	ret

Disassembly of section .text.Eight7seg_blink:

000006be <Eight7seg_blink>:
	
	Eight7seg_displayOn();
	Eight7seg_reset();
}

void Eight7seg_blink(int times){
 6be:	0f 93       	push	r16
 6c0:	1f 93       	push	r17
 6c2:	cf 93       	push	r28
 6c4:	df 93       	push	r29
 6c6:	8c 01       	movw	r16, r24
	for (int i=0; i < times; i++)
 6c8:	c0 e0       	ldi	r28, 0x00	; 0
 6ca:	d0 e0       	ldi	r29, 0x00	; 0
 6cc:	0d c0       	rjmp	.+26     	; 0x6e8 <Eight7seg_blink+0x2a>
	{
		Eight7seg_displayOff();
 6ce:	0e 94 5e 04 	call	0x8bc	; 0x8bc <Eight7seg_displayOff>
		waitFunction(300);
 6d2:	8c e2       	ldi	r24, 0x2C	; 44
 6d4:	91 e0       	ldi	r25, 0x01	; 1
 6d6:	0e 94 26 04 	call	0x84c	; 0x84c <waitFunction>
		Eight7seg_displayOn();
 6da:	0e 94 51 04 	call	0x8a2	; 0x8a2 <Eight7seg_displayOn>
		waitFunction(300);
 6de:	8c e2       	ldi	r24, 0x2C	; 44
 6e0:	91 e0       	ldi	r25, 0x01	; 1
 6e2:	0e 94 26 04 	call	0x84c	; 0x84c <waitFunction>
	Eight7seg_displayOn();
	Eight7seg_reset();
}

void Eight7seg_blink(int times){
	for (int i=0; i < times; i++)
 6e6:	21 96       	adiw	r28, 0x01	; 1
 6e8:	c0 17       	cp	r28, r16
 6ea:	d1 07       	cpc	r29, r17
 6ec:	84 f3       	brlt	.-32     	; 0x6ce <Eight7seg_blink+0x10>
		Eight7seg_displayOff();
		waitFunction(300);
		Eight7seg_displayOn();
		waitFunction(300);
	}
}
 6ee:	df 91       	pop	r29
 6f0:	cf 91       	pop	r28
 6f2:	1f 91       	pop	r17
 6f4:	0f 91       	pop	r16
 6f6:	08 95       	ret

Disassembly of section .text.Eight7seg_writeToDisplay:

00000730 <Eight7seg_writeToDisplay>:
	spi_write(0x0C); 				// Register 0B: Shutdown register
	spi_write(0x00); 				// 	-> 1 = Normal operation
	spi_slaveDeSelect(slaveAddress);			// De select display chip
}

void Eight7seg_writeToDisplay(char display, char number){
 730:	cf 93       	push	r28
 732:	df 93       	push	r29
	
	if(display < 1 || display > 8) return;
 734:	9f ef       	ldi	r25, 0xFF	; 255
 736:	98 0f       	add	r25, r24
 738:	98 30       	cpi	r25, 0x08	; 8
 73a:	78 f4       	brcc	.+30     	; 0x75a <Eight7seg_writeToDisplay+0x2a>
 73c:	d6 2f       	mov	r29, r22
 73e:	c8 2f       	mov	r28, r24
	
	spi_slaveSelect(slaveAddress); 		// Select display chip
 740:	80 e0       	ldi	r24, 0x00	; 0
 742:	0e 94 85 04 	call	0x90a	; 0x90a <spi_slaveSelect>
	spi_write(9 - display);  		// 	digit address: (digit place)
 746:	89 e0       	ldi	r24, 0x09	; 9
 748:	8c 1b       	sub	r24, r28
 74a:	0e 94 de 04 	call	0x9bc	; 0x9bc <spi_write>
	spi_write(number);			// 	digit value: 0
 74e:	8d 2f       	mov	r24, r29
 750:	0e 94 de 04 	call	0x9bc	; 0x9bc <spi_write>
	spi_slaveDeSelect(slaveAddress);		// Deselect display chip
 754:	80 e0       	ldi	r24, 0x00	; 0
 756:	0e 94 9c 04 	call	0x938	; 0x938 <spi_slaveDeSelect>
 75a:	df 91       	pop	r29
 75c:	cf 91       	pop	r28
 75e:	08 95       	ret

Disassembly of section .text.Eight7seg_reset:

000007d0 <Eight7seg_reset>:
		Eight7seg_displayOn();
		waitFunction(300);
	}
}

void Eight7seg_reset(){
 7d0:	cf 93       	push	r28
 7d2:	df 93       	push	r29
	for (int i = 1; i < 9; i++)
 7d4:	c1 e0       	ldi	r28, 0x01	; 1
 7d6:	d0 e0       	ldi	r29, 0x00	; 0
 7d8:	05 c0       	rjmp	.+10     	; 0x7e4 <Eight7seg_reset+0x14>
	{
		Eight7seg_writeToDisplay(i, 10);
 7da:	6a e0       	ldi	r22, 0x0A	; 10
 7dc:	8c 2f       	mov	r24, r28
 7de:	0e 94 98 03 	call	0x730	; 0x730 <Eight7seg_writeToDisplay>
		waitFunction(300);
	}
}

void Eight7seg_reset(){
	for (int i = 1; i < 9; i++)
 7e2:	21 96       	adiw	r28, 0x01	; 1
 7e4:	c9 30       	cpi	r28, 0x09	; 9
 7e6:	d1 05       	cpc	r29, r1
 7e8:	c4 f3       	brlt	.-16     	; 0x7da <Eight7seg_reset+0xa>
	{
		Eight7seg_writeToDisplay(i, 10);
	}
}
 7ea:	df 91       	pop	r29
 7ec:	cf 91       	pop	r28
 7ee:	08 95       	ret

Disassembly of section .text.Eight7seg_Init:

000003ca <Eight7seg_Init>:
#define slaveAddress 0

// Initialize the driver chip (type MAX 7219)
void Eight7seg_Init()
{
	DDRB=0x01;					  	// Set PB0 pin as output for display select
 3ca:	81 e0       	ldi	r24, 0x01	; 1
 3cc:	87 bb       	out	0x17, r24	; 23
	spi_masterInit();
 3ce:	0e 94 91 04 	call	0x922	; 0x922 <spi_masterInit>
	
	spi_slaveSelect(slaveAddress);				// Select display chip (MAX7219)
 3d2:	80 e0       	ldi	r24, 0x00	; 0
 3d4:	0e 94 85 04 	call	0x90a	; 0x90a <spi_slaveSelect>
	spi_write(0x09);      			// Register 09: Decode Mode
 3d8:	89 e0       	ldi	r24, 0x09	; 9
 3da:	0e 94 de 04 	call	0x9bc	; 0x9bc <spi_write>
	spi_write(0xFF);				// 	-> 1's = BCD mode for all digits
 3de:	8f ef       	ldi	r24, 0xFF	; 255
 3e0:	0e 94 de 04 	call	0x9bc	; 0x9bc <spi_write>
	spi_slaveDeSelect(slaveAddress);			// Deselect display chip
 3e4:	80 e0       	ldi	r24, 0x00	; 0
 3e6:	0e 94 9c 04 	call	0x938	; 0x938 <spi_slaveDeSelect>

	spi_slaveSelect(slaveAddress);				// Select display chip
 3ea:	80 e0       	ldi	r24, 0x00	; 0
 3ec:	0e 94 85 04 	call	0x90a	; 0x90a <spi_slaveSelect>
	spi_write(0x0A);      			// Register 0A: Intensity
 3f0:	8a e0       	ldi	r24, 0x0A	; 10
 3f2:	0e 94 de 04 	call	0x9bc	; 0x9bc <spi_write>
	spi_write(0x04);    			//  -> Level 4 (in range [1..F])
 3f6:	84 e0       	ldi	r24, 0x04	; 4
 3f8:	0e 94 de 04 	call	0x9bc	; 0x9bc <spi_write>
	spi_slaveDeSelect(slaveAddress);			// De select display chip
 3fc:	80 e0       	ldi	r24, 0x00	; 0
 3fe:	0e 94 9c 04 	call	0x938	; 0x938 <spi_slaveDeSelect>

	spi_slaveSelect(slaveAddress);				// Select display chip
 402:	80 e0       	ldi	r24, 0x00	; 0
 404:	0e 94 85 04 	call	0x90a	; 0x90a <spi_slaveSelect>
	spi_write(0x0B);  				// Register 0B: Scan-limit
 408:	8b e0       	ldi	r24, 0x0B	; 11
 40a:	0e 94 de 04 	call	0x9bc	; 0x9bc <spi_write>
	spi_write(0x07);   				// 	-> 1 = Display digits 0..1
 40e:	87 e0       	ldi	r24, 0x07	; 7
 410:	0e 94 de 04 	call	0x9bc	; 0x9bc <spi_write>
	spi_slaveDeSelect(slaveAddress);			// Deselect display chip
 414:	80 e0       	ldi	r24, 0x00	; 0
 416:	0e 94 9c 04 	call	0x938	; 0x938 <spi_slaveDeSelect>
	
	Eight7seg_displayOn();
 41a:	0e 94 51 04 	call	0x8a2	; 0x8a2 <Eight7seg_displayOn>
	Eight7seg_reset();
 41e:	0e 94 e8 03 	call	0x7d0	; 0x7d0 <Eight7seg_reset>
 422:	08 95       	ret

Disassembly of section .text.adc_init:

00000986 <adc_init>:

static void adc_init()
{
	//Vref=5V
	//channel 1 at pin PF1
	ADMUX=0b11100001;
 986:	81 ee       	ldi	r24, 0xE1	; 225
 988:	87 b9       	out	0x07, r24	; 7
	// ADSC=1 ADC Enable
	// ADPS[2:0]=111, prescaler=128
	// ADIE=1, ADC interrupt Enable
	//ADATE=1, ADC Auto Triggering Enable
	ADCSRA=(1<<ADEN)|(6<<ADPS0)|(1<<ADSC)|(1<<ADIE)|(1<<ADFR);
 98a:	8e ee       	ldi	r24, 0xEE	; 238
 98c:	86 b9       	out	0x06, r24	; 6
	
	//ADTS[2:0]= 100 , Timer0 overflow select as trigger source
	SFIOR=(4<<5);
 98e:	80 e8       	ldi	r24, 0x80	; 128
 990:	80 bd       	out	0x20, r24	; 32
 992:	08 95       	ret

Disassembly of section .text.adc_deinit:

000009b4 <adc_deinit>:
}

static void adc_deinit(){
	ADCSRA &= ~((1<<ADIE)|(1<<ADFR));
 9b4:	86 b1       	in	r24, 0x06	; 6
 9b6:	87 7d       	andi	r24, 0xD7	; 215
 9b8:	86 b9       	out	0x06, r24	; 6
 9ba:	08 95       	ret

Disassembly of section .text.ADCLaserIO_start:

0000056e <ADCLaserIO_start>:

static void adc_init();
static void adc_deinit();

void ADCLaserIO_start(void (*_ptr)(uInt16)){
	if(callback == NULL){
 56e:	20 91 0e 01 	lds	r18, 0x010E	; 0x80010e <callback>
 572:	30 91 0f 01 	lds	r19, 0x010F	; 0x80010f <callback+0x1>
 576:	23 2b       	or	r18, r19
 578:	31 f4       	brne	.+12     	; 0x586 <ADCLaserIO_start+0x18>
		if (_ptr !=NULL) callback = _ptr;
 57a:	00 97       	sbiw	r24, 0x00	; 0
 57c:	21 f0       	breq	.+8      	; 0x586 <ADCLaserIO_start+0x18>
 57e:	90 93 0f 01 	sts	0x010F, r25	; 0x80010f <callback+0x1>
 582:	80 93 0e 01 	sts	0x010E, r24	; 0x80010e <callback>
	}
	//Set port F1 to input
	DDRF &= ~(0x02);
 586:	e1 e6       	ldi	r30, 0x61	; 97
 588:	f0 e0       	ldi	r31, 0x00	; 0
 58a:	80 81       	ld	r24, Z
 58c:	8d 7f       	andi	r24, 0xFD	; 253
 58e:	80 83       	st	Z, r24
	//Set port D0 to output
	DDRD |= 0x01;
 590:	81 b3       	in	r24, 0x11	; 17
 592:	81 60       	ori	r24, 0x01	; 1
 594:	81 bb       	out	0x11, r24	; 17
	//Set port D0 high
	PORTD |= 0x01;
 596:	82 b3       	in	r24, 0x12	; 18
 598:	81 60       	ori	r24, 0x01	; 1
 59a:	82 bb       	out	0x12, r24	; 18
	
	waitFunction(10);
 59c:	8a e0       	ldi	r24, 0x0A	; 10
 59e:	90 e0       	ldi	r25, 0x00	; 0
 5a0:	0e 94 26 04 	call	0x84c	; 0x84c <waitFunction>
	
	adc_init();
 5a4:	0e 94 c3 04 	call	0x986	; 0x986 <adc_init>
	
	TCCR0=(5<<CS00);
 5a8:	85 e0       	ldi	r24, 0x05	; 5
 5aa:	83 bf       	out	0x33, r24	; 51
	TIMSK=(1<<TOIE0);
 5ac:	81 e0       	ldi	r24, 0x01	; 1
 5ae:	87 bf       	out	0x37, r24	; 55
	
	//Enable global interrupts
	sei();
 5b0:	78 94       	sei
 5b2:	08 95       	ret

Disassembly of section .text.ADCLaserIO_stop:

00000994 <ADCLaserIO_stop>:
}

void ADCLaserIO_stop(){
	adc_deinit();
 994:	0e 94 da 04 	call	0x9b4	; 0x9b4 <adc_deinit>
	PORTD &= ~(0x01);
 998:	82 b3       	in	r24, 0x12	; 18
 99a:	8e 7f       	andi	r24, 0xFE	; 254
 99c:	82 bb       	out	0x12, r24	; 18
 99e:	08 95       	ret

Disassembly of section .text.__vector_21:

000002c4 <__vector_21>:

/*
Interrupt service routine for ADC to check if
laser has been interrupted.
*/
ISR(ADC_vect){
 2c4:	1f 92       	push	r1
 2c6:	0f 92       	push	r0
 2c8:	0f b6       	in	r0, 0x3f	; 63
 2ca:	0f 92       	push	r0
 2cc:	11 24       	eor	r1, r1
 2ce:	0b b6       	in	r0, 0x3b	; 59
 2d0:	0f 92       	push	r0
 2d2:	cf 92       	push	r12
 2d4:	df 92       	push	r13
 2d6:	ef 92       	push	r14
 2d8:	ff 92       	push	r15
 2da:	2f 93       	push	r18
 2dc:	3f 93       	push	r19
 2de:	4f 93       	push	r20
 2e0:	5f 93       	push	r21
 2e2:	6f 93       	push	r22
 2e4:	7f 93       	push	r23
 2e6:	8f 93       	push	r24
 2e8:	9f 93       	push	r25
 2ea:	af 93       	push	r26
 2ec:	bf 93       	push	r27
 2ee:	ef 93       	push	r30
 2f0:	ff 93       	push	r31
	//Calculates the light value in percentages
	uInt16 value = (ADC) / 655;
 2f2:	84 b1       	in	r24, 0x04	; 4
 2f4:	95 b1       	in	r25, 0x05	; 5
 2f6:	6f e8       	ldi	r22, 0x8F	; 143
 2f8:	72 e0       	ldi	r23, 0x02	; 2
 2fa:	0e 94 b0 03 	call	0x760	; 0x760 <__udivmodhi4>
 2fe:	6b 01       	movw	r12, r22
 300:	e1 2c       	mov	r14, r1
 302:	f1 2c       	mov	r15, r1
	
	if (value < TRIGGER_VALUE){
 304:	80 e5       	ldi	r24, 0x50	; 80
 306:	c8 16       	cp	r12, r24
 308:	d1 04       	cpc	r13, r1
 30a:	e1 04       	cpc	r14, r1
 30c:	f1 04       	cpc	r15, r1
 30e:	48 f4       	brcc	.+18     	; 0x322 <__vector_21+0x5e>
		ADCLaserIO_stop();
 310:	0e 94 ca 04 	call	0x994	; 0x994 <ADCLaserIO_stop>
		callback(value);
 314:	e0 91 0e 01 	lds	r30, 0x010E	; 0x80010e <callback>
 318:	f0 91 0f 01 	lds	r31, 0x010F	; 0x80010f <callback+0x1>
 31c:	c7 01       	movw	r24, r14
 31e:	b6 01       	movw	r22, r12
 320:	09 95       	icall
	}
}
 322:	ff 91       	pop	r31
 324:	ef 91       	pop	r30
 326:	bf 91       	pop	r27
 328:	af 91       	pop	r26
 32a:	9f 91       	pop	r25
 32c:	8f 91       	pop	r24
 32e:	7f 91       	pop	r23
 330:	6f 91       	pop	r22
 332:	5f 91       	pop	r21
 334:	4f 91       	pop	r20
 336:	3f 91       	pop	r19
 338:	2f 91       	pop	r18
 33a:	ff 90       	pop	r15
 33c:	ef 90       	pop	r14
 33e:	df 90       	pop	r13
 340:	cf 90       	pop	r12
 342:	0f 90       	pop	r0
 344:	0b be       	out	0x3b, r0	; 59
 346:	0f 90       	pop	r0
 348:	0f be       	out	0x3f, r0	; 63
 34a:	0f 90       	pop	r0
 34c:	1f 90       	pop	r1
 34e:	18 95       	reti

Disassembly of section .text.__vector_16:

0000094e <__vector_16>:

/*
Necessary timer.
*/
 94e:	1f 92       	push	r1
 950:	0f 92       	push	r0
 952:	0f b6       	in	r0, 0x3f	; 63
 954:	0f 92       	push	r0
 956:	11 24       	eor	r1, r1
 958:	0f 90       	pop	r0
 95a:	0f be       	out	0x3f, r0	; 63
 95c:	0f 90       	pop	r0
 95e:	1f 90       	pop	r1
 960:	18 95       	reti

Disassembly of section .text.Buzzert_init:

00000962 <Buzzert_init>:

#define INTERVAL  		2273

// Initialize timer 1: fast PWM at pin PORTB.6 (hundredth ms)
void Buzzert_init(){	
	ICR1 = INTERVAL;				// TOP value for counting = INTERVAL*us
 962:	81 ee       	ldi	r24, 0xE1	; 225
 964:	98 e0       	ldi	r25, 0x08	; 8
 966:	97 bd       	out	0x27, r25	; 39
 968:	86 bd       	out	0x26, r24	; 38
	OCR1A = INTERVAL/2;				// compare value in between	
 96a:	80 e7       	ldi	r24, 0x70	; 112
 96c:	94 e0       	ldi	r25, 0x04	; 4
 96e:	9b bd       	out	0x2b, r25	; 43
 970:	8a bd       	out	0x2a, r24	; 42
 972:	08 95       	ret

Disassembly of section .text.Buzzert_start:

000009a0 <Buzzert_start>:
}

void Buzzert_start()
{
	TCCR1A = 0b10000010;			// timer, compare output at OC1A=PB5
 9a0:	82 e8       	ldi	r24, 0x82	; 130
 9a2:	8f bd       	out	0x2f, r24	; 47
	TCCR1B = 0b00001011;			// fast PWM, TOP = ICR1, prescaler=8 (1MHz), RUN
 9a4:	8b e0       	ldi	r24, 0x0B	; 11
 9a6:	8e bd       	out	0x2e, r24	; 46
 9a8:	08 95       	ret

Disassembly of section .text.Buzzert_stop:

000009cc <Buzzert_stop>:
}

void Buzzert_stop(){
	TCCR1A = 0;
 9cc:	1f bc       	out	0x2f, r1	; 47
	TCCR1B = 0;
 9ce:	1e bc       	out	0x2e, r1	; 46
 9d0:	08 95       	ret

Disassembly of section .text.Keypad_reset:

00000810 <Keypad_reset>:
	}
	
}

static void Keypad_reset(){
	inputIndex = 0;
 810:	10 92 13 01 	sts	0x0113, r1	; 0x800113 <inputIndex+0x1>
 814:	10 92 12 01 	sts	0x0112, r1	; 0x800112 <inputIndex>
	side = rotateRight;
 818:	81 e0       	ldi	r24, 0x01	; 1
 81a:	90 e0       	ldi	r25, 0x00	; 0
 81c:	90 93 15 01 	sts	0x0115, r25	; 0x800115 <side+0x1>
 820:	80 93 14 01 	sts	0x0114, r24	; 0x800114 <side>
	currentNumber = 0;
 824:	10 92 17 01 	sts	0x0117, r1	; 0x800117 <currentNumber+0x1>
 828:	10 92 16 01 	sts	0x0116, r1	; 0x800116 <currentNumber>
 82c:	08 95       	ret

Disassembly of section .text.Keypad_unlock:

00000350 <Keypad_unlock>:
		currentNumber = 9;
	}
	Eight7seg_writeToDisplay(inputIndex + 1, currentNumber);
}

static void Keypad_unlock(){
 350:	cf 93       	push	r28
 352:	df 93       	push	r29
	
	Eight7seg_blink(3);
 354:	83 e0       	ldi	r24, 0x03	; 3
 356:	90 e0       	ldi	r25, 0x00	; 0
 358:	0e 94 5f 03 	call	0x6be	; 0x6be <Eight7seg_blink>
	Eight7seg_reset();
 35c:	0e 94 e8 03 	call	0x7d0	; 0x7d0 <Eight7seg_reset>
	Keypad_reset();
 360:	0e 94 08 04 	call	0x810	; 0x810 <Keypad_reset>
	
	for (int i = 0; i < 4; i++)
 364:	20 e0       	ldi	r18, 0x00	; 0
 366:	30 e0       	ldi	r19, 0x00	; 0
 368:	1f c0       	rjmp	.+62     	; 0x3a8 <Keypad_unlock+0x58>
	{
		if (inputcode[i] != passcode[i]){
 36a:	c9 01       	movw	r24, r18
 36c:	88 0f       	add	r24, r24
 36e:	99 1f       	adc	r25, r25
 370:	fc 01       	movw	r30, r24
 372:	ee 5f       	subi	r30, 0xFE	; 254
 374:	fe 4f       	sbci	r31, 0xFE	; 254
 376:	c0 81       	ld	r28, Z
 378:	d1 81       	ldd	r29, Z+1	; 0x01
 37a:	09 2e       	mov	r0, r25
 37c:	00 0c       	add	r0, r0
 37e:	aa 0b       	sbc	r26, r26
 380:	89 5c       	subi	r24, 0xC9	; 201
 382:	9e 4f       	sbci	r25, 0xFE	; 254
 384:	af 4f       	sbci	r26, 0xFF	; 255
 386:	fc 01       	movw	r30, r24
 388:	5a 2f       	mov	r21, r26
 38a:	0e 94 ba 04 	call	0x974	; 0x974 <__xload_2>
 38e:	c6 17       	cp	r28, r22
 390:	d7 07       	cpc	r29, r23
 392:	41 f0       	breq	.+16     	; 0x3a4 <Keypad_unlock+0x54>
			wrongCode_callback();
 394:	e0 91 18 01 	lds	r30, 0x0118	; 0x800118 <wrongCode_callback>
 398:	f0 91 19 01 	lds	r31, 0x0119	; 0x800119 <wrongCode_callback+0x1>
 39c:	09 95       	icall
			Eight7seg_reset();
 39e:	0e 94 e8 03 	call	0x7d0	; 0x7d0 <Eight7seg_reset>
			return;
 3a2:	10 c0       	rjmp	.+32     	; 0x3c4 <Keypad_unlock+0x74>
	
	Eight7seg_blink(3);
	Eight7seg_reset();
	Keypad_reset();
	
	for (int i = 0; i < 4; i++)
 3a4:	2f 5f       	subi	r18, 0xFF	; 255
 3a6:	3f 4f       	sbci	r19, 0xFF	; 255
 3a8:	24 30       	cpi	r18, 0x04	; 4
 3aa:	31 05       	cpc	r19, r1
 3ac:	f4 f2       	brlt	.-68     	; 0x36a <Keypad_unlock+0x1a>
			Eight7seg_reset();
			return;
		}
	}
	
	locked = 0;
 3ae:	10 92 11 01 	sts	0x0111, r1	; 0x800111 <locked+0x1>
 3b2:	10 92 10 01 	sts	0x0110, r1	; 0x800110 <locked>
	unlocked_callback();
 3b6:	e0 91 1a 01 	lds	r30, 0x011A	; 0x80011a <unlocked_callback>
 3ba:	f0 91 1b 01 	lds	r31, 0x011B	; 0x80011b <unlocked_callback+0x1>
 3be:	09 95       	icall
	ADCLaserIO_stop();
 3c0:	0e 94 ca 04 	call	0x994	; 0x994 <ADCLaserIO_stop>
 3c4:	df 91       	pop	r29
 3c6:	cf 91       	pop	r28
 3c8:	08 95       	ret

Disassembly of section .text.Keypad_rotate:

00000224 <Keypad_rotate>:
	side = rotateRight;
	currentNumber = 0;
}

static void Keypad_rotate(int rotate){
	if(rotate > 0)
 224:	18 16       	cp	r1, r24
 226:	19 06       	cpc	r1, r25
 228:	1c f4       	brge	.+6      	; 0x230 <Keypad_rotate+0xc>
	rotate = rotateRight;
 22a:	41 e0       	ldi	r20, 0x01	; 1
 22c:	50 e0       	ldi	r21, 0x00	; 0
 22e:	02 c0       	rjmp	.+4      	; 0x234 <Keypad_rotate+0x10>
	else
	rotate = rotateLeft;
 230:	4f ef       	ldi	r20, 0xFF	; 255
 232:	5f ef       	ldi	r21, 0xFF	; 255
	
	if(side != rotate){
 234:	80 91 14 01 	lds	r24, 0x0114	; 0x800114 <side>
 238:	90 91 15 01 	lds	r25, 0x0115	; 0x800115 <side+0x1>
 23c:	48 17       	cp	r20, r24
 23e:	59 07       	cpc	r21, r25
 240:	f9 f0       	breq	.+62     	; 0x280 <Keypad_rotate+0x5c>
		side = rotate;
 242:	50 93 15 01 	sts	0x0115, r21	; 0x800115 <side+0x1>
 246:	40 93 14 01 	sts	0x0114, r20	; 0x800114 <side>
		inputcode[inputIndex] = currentNumber;
 24a:	20 91 12 01 	lds	r18, 0x0112	; 0x800112 <inputIndex>
 24e:	30 91 13 01 	lds	r19, 0x0113	; 0x800113 <inputIndex+0x1>
 252:	f9 01       	movw	r30, r18
 254:	ee 0f       	add	r30, r30
 256:	ff 1f       	adc	r31, r31
 258:	ee 5f       	subi	r30, 0xFE	; 254
 25a:	fe 4f       	sbci	r31, 0xFE	; 254
 25c:	80 91 16 01 	lds	r24, 0x0116	; 0x800116 <currentNumber>
 260:	90 91 17 01 	lds	r25, 0x0117	; 0x800117 <currentNumber+0x1>
 264:	91 83       	std	Z+1, r25	; 0x01
 266:	80 83       	st	Z, r24
		inputIndex++;
 268:	2f 5f       	subi	r18, 0xFF	; 255
 26a:	3f 4f       	sbci	r19, 0xFF	; 255
 26c:	30 93 13 01 	sts	0x0113, r19	; 0x800113 <inputIndex+0x1>
 270:	20 93 12 01 	sts	0x0112, r18	; 0x800112 <inputIndex>
		
		if(inputIndex > 3){
 274:	24 30       	cpi	r18, 0x04	; 4
 276:	31 05       	cpc	r19, r1
 278:	1c f0       	brlt	.+6      	; 0x280 <Keypad_rotate+0x5c>
			Keypad_unlock();
 27a:	0e 94 a8 01 	call	0x350	; 0x350 <Keypad_unlock>
			return;
 27e:	08 95       	ret
		}
	}
	
	
	currentNumber += rotate;
 280:	80 91 16 01 	lds	r24, 0x0116	; 0x800116 <currentNumber>
 284:	90 91 17 01 	lds	r25, 0x0117	; 0x800117 <currentNumber+0x1>
 288:	84 0f       	add	r24, r20
 28a:	95 1f       	adc	r25, r21
 28c:	90 93 17 01 	sts	0x0117, r25	; 0x800117 <currentNumber+0x1>
 290:	80 93 16 01 	sts	0x0116, r24	; 0x800116 <currentNumber>
	if(currentNumber > 9){
 294:	8a 30       	cpi	r24, 0x0A	; 10
 296:	91 05       	cpc	r25, r1
 298:	2c f0       	brlt	.+10     	; 0x2a4 <Keypad_rotate+0x80>
		currentNumber = 0;
 29a:	10 92 17 01 	sts	0x0117, r1	; 0x800117 <currentNumber+0x1>
 29e:	10 92 16 01 	sts	0x0116, r1	; 0x800116 <currentNumber>
 2a2:	08 c0       	rjmp	.+16     	; 0x2b4 <Keypad_rotate+0x90>
		}else if(currentNumber < 0){
 2a4:	99 23       	and	r25, r25
 2a6:	34 f4       	brge	.+12     	; 0x2b4 <Keypad_rotate+0x90>
		currentNumber = 9;
 2a8:	89 e0       	ldi	r24, 0x09	; 9
 2aa:	90 e0       	ldi	r25, 0x00	; 0
 2ac:	90 93 17 01 	sts	0x0117, r25	; 0x800117 <currentNumber+0x1>
 2b0:	80 93 16 01 	sts	0x0116, r24	; 0x800116 <currentNumber>
	}
	Eight7seg_writeToDisplay(inputIndex + 1, currentNumber);
 2b4:	80 91 12 01 	lds	r24, 0x0112	; 0x800112 <inputIndex>
 2b8:	60 91 16 01 	lds	r22, 0x0116	; 0x800116 <currentNumber>
 2bc:	8f 5f       	subi	r24, 0xFF	; 255
 2be:	0e 94 98 03 	call	0x730	; 0x730 <Eight7seg_writeToDisplay>
 2c2:	08 95       	ret

Disassembly of section .text.Keypad_init:

000007f0 <Keypad_init>:
static void Keypad_rotate(int rotate);
static void Keypad_unlock();
static void Keypad_reset();

void Keypad_init(void (*_locked)(), void (*_unlocked)(), void (*_wrongCode)()){
	locked_callback = _locked;
 7f0:	90 93 1d 01 	sts	0x011D, r25	; 0x80011d <locked_callback+0x1>
 7f4:	80 93 1c 01 	sts	0x011C, r24	; 0x80011c <locked_callback>
	unlocked_callback = _unlocked;
 7f8:	70 93 1b 01 	sts	0x011B, r23	; 0x80011b <unlocked_callback+0x1>
 7fc:	60 93 1a 01 	sts	0x011A, r22	; 0x80011a <unlocked_callback>
	wrongCode_callback = _wrongCode;
 800:	50 93 19 01 	sts	0x0119, r21	; 0x800119 <wrongCode_callback+0x1>
 804:	40 93 18 01 	sts	0x0118, r20	; 0x800118 <wrongCode_callback>
	DDRA &= ~(0x07);
 808:	8a b3       	in	r24, 0x1a	; 26
 80a:	88 7f       	andi	r24, 0xF8	; 248
 80c:	8a bb       	out	0x1a, r24	; 26
 80e:	08 95       	ret

Disassembly of section .text.Keypad_checkKey:

00000424 <Keypad_checkKey>:
}

void Keypad_checkKey(){
	int keys = PINA & 0x7;
 424:	89 b3       	in	r24, 0x19	; 25
	if(locked == 0)
 426:	20 91 10 01 	lds	r18, 0x0110	; 0x800110 <locked>
 42a:	30 91 11 01 	lds	r19, 0x0111	; 0x800111 <locked+0x1>
 42e:	23 2b       	or	r18, r19
 430:	81 f4       	brne	.+32     	; 0x452 <Keypad_checkKey+0x2e>
	{
		if(keys & 4){
 432:	82 ff       	sbrs	r24, 2
 434:	22 c0       	rjmp	.+68     	; 0x47a <Keypad_checkKey+0x56>
			locked = 1;
 436:	81 e0       	ldi	r24, 0x01	; 1
 438:	90 e0       	ldi	r25, 0x00	; 0
 43a:	90 93 11 01 	sts	0x0111, r25	; 0x800111 <locked+0x1>
 43e:	80 93 10 01 	sts	0x0110, r24	; 0x800110 <locked>
			Keypad_reset();
 442:	0e 94 08 04 	call	0x810	; 0x810 <Keypad_reset>
			locked_callback();
 446:	e0 91 1c 01 	lds	r30, 0x011C	; 0x80011c <locked_callback>
 44a:	f0 91 1d 01 	lds	r31, 0x011D	; 0x80011d <locked_callback+0x1>
 44e:	09 95       	icall
 450:	08 95       	ret
		}
		return;
	}
	
	if(keys & 1){
 452:	80 ff       	sbrs	r24, 0
 454:	05 c0       	rjmp	.+10     	; 0x460 <Keypad_checkKey+0x3c>
		Keypad_rotate(rotateRight);
 456:	81 e0       	ldi	r24, 0x01	; 1
 458:	90 e0       	ldi	r25, 0x00	; 0
 45a:	0e 94 12 01 	call	0x224	; 0x224 <Keypad_rotate>
 45e:	08 95       	ret
		}else if(keys & 2){
 460:	81 ff       	sbrs	r24, 1
 462:	05 c0       	rjmp	.+10     	; 0x46e <Keypad_checkKey+0x4a>
		Keypad_rotate(rotateLeft);
 464:	8f ef       	ldi	r24, 0xFF	; 255
 466:	9f ef       	ldi	r25, 0xFF	; 255
 468:	0e 94 12 01 	call	0x224	; 0x224 <Keypad_rotate>
 46c:	08 95       	ret
		}else if(keys & 4){
 46e:	82 ff       	sbrs	r24, 2
 470:	04 c0       	rjmp	.+8      	; 0x47a <Keypad_checkKey+0x56>
		Eight7seg_reset();
 472:	0e 94 e8 03 	call	0x7d0	; 0x7d0 <Eight7seg_reset>
		Keypad_reset();
 476:	0e 94 08 04 	call	0x810	; 0x810 <Keypad_reset>
 47a:	08 95       	ret

Disassembly of section .text.lcd_strobe_lcd_e:

0000082e <lcd_strobe_lcd_e>:
outputs:
notes:			According datasheet HD44780
Version :    	DMK, Initial code
*******************************************************************/
void lcd_strobe_lcd_e(void) {
	PORTA |= (1<<LCD_E);	// E high
 82e:	8b b3       	in	r24, 0x1b	; 27
 830:	80 64       	ori	r24, 0x40	; 64
 832:	8b bb       	out	0x1b, r24	; 27
	waitFunction(1);			// nodig
 834:	81 e0       	ldi	r24, 0x01	; 1
 836:	90 e0       	ldi	r25, 0x00	; 0
 838:	0e 94 26 04 	call	0x84c	; 0x84c <waitFunction>
	PORTA &= ~(1<<LCD_E);  	// E low
 83c:	8b b3       	in	r24, 0x1b	; 27
 83e:	8f 7b       	andi	r24, 0xBF	; 191
 840:	8b bb       	out	0x1b, r24	; 27
	waitFunction(1);			// nodig?
 842:	81 e0       	ldi	r24, 0x01	; 1
 844:	90 e0       	ldi	r25, 0x00	; 0
 846:	0e 94 26 04 	call	0x84c	; 0x84c <waitFunction>
 84a:	08 95       	ret

Disassembly of section .text.init_4bits_mode:

0000063e <init_4bits_mode>:
inputs:
outputs:
notes:			According datasheet HD44780 table 12
Version :    	DMK, Initial code
*******************************************************************/
void init_4bits_mode(void) {
 63e:	cf 93       	push	r28
	// PORTC output mode and all low (also E and RS pin)
	DDRD = 0xFF;
 640:	8f ef       	ldi	r24, 0xFF	; 255
 642:	81 bb       	out	0x11, r24	; 17
	DDRA = 0xFF;
 644:	8a bb       	out	0x1a, r24	; 26
	PORTC = 0x00;
 646:	15 ba       	out	0x15, r1	; 21
	PORTA = 0x00;
 648:	1b ba       	out	0x1b, r1	; 27
	//PORTA = 0xFF;

	// Step 2 (table 12)
	PORTC = 0x20;	// function set
 64a:	c0 e2       	ldi	r28, 0x20	; 32
 64c:	c5 bb       	out	0x15, r28	; 21
	lcd_strobe_lcd_e();
 64e:	0e 94 17 04 	call	0x82e	; 0x82e <lcd_strobe_lcd_e>

	// Step 3 (table 12)
	PORTC = 0x20;   // function set
 652:	c5 bb       	out	0x15, r28	; 21
	lcd_strobe_lcd_e();
 654:	0e 94 17 04 	call	0x82e	; 0x82e <lcd_strobe_lcd_e>
	PORTC = 0x80;
 658:	80 e8       	ldi	r24, 0x80	; 128
 65a:	85 bb       	out	0x15, r24	; 21
	lcd_strobe_lcd_e();
 65c:	0e 94 17 04 	call	0x82e	; 0x82e <lcd_strobe_lcd_e>

	// Step 4 (table 12)
	PORTC = 0x00;   // Display on/off control
 660:	15 ba       	out	0x15, r1	; 21
	lcd_strobe_lcd_e();
 662:	0e 94 17 04 	call	0x82e	; 0x82e <lcd_strobe_lcd_e>
	PORTC = 0xF0;
 666:	80 ef       	ldi	r24, 0xF0	; 240
 668:	85 bb       	out	0x15, r24	; 21
	lcd_strobe_lcd_e();
 66a:	0e 94 17 04 	call	0x82e	; 0x82e <lcd_strobe_lcd_e>

	// Step 4 (table 12)
	PORTC = 0x00;   // Entry mode set
 66e:	15 ba       	out	0x15, r1	; 21
	lcd_strobe_lcd_e();
 670:	0e 94 17 04 	call	0x82e	; 0x82e <lcd_strobe_lcd_e>
	PORTC = 0x60;
 674:	80 e6       	ldi	r24, 0x60	; 96
 676:	85 bb       	out	0x15, r24	; 21
	lcd_strobe_lcd_e();
 678:	0e 94 17 04 	call	0x82e	; 0x82e <lcd_strobe_lcd_e>
}
 67c:	cf 91       	pop	r28
 67e:	08 95       	ret

Disassembly of section .text.lcd_write_data:

00000788 <lcd_write_data>:
inputs:			byte - written to LCD
outputs:
notes:			According datasheet HD44780 table 12
Version :    	DMK, Initial code
*******************************************************************/
void lcd_write_data(unsigned char byte) {
 788:	cf 93       	push	r28
 78a:	c8 2f       	mov	r28, r24
	// First nibble.
	PORTC = byte;
 78c:	85 bb       	out	0x15, r24	; 21
	PORTA |= (1<<LCD_RS);
 78e:	8b b3       	in	r24, 0x1b	; 27
 790:	80 61       	ori	r24, 0x10	; 16
 792:	8b bb       	out	0x1b, r24	; 27
	lcd_strobe_lcd_e();
 794:	0e 94 17 04 	call	0x82e	; 0x82e <lcd_strobe_lcd_e>

	// Second nibble
	PORTC = (byte<<4);
 798:	c2 95       	swap	r28
 79a:	c0 7f       	andi	r28, 0xF0	; 240
 79c:	c5 bb       	out	0x15, r28	; 21
	PORTA |= (1<<LCD_RS);
 79e:	8b b3       	in	r24, 0x1b	; 27
 7a0:	80 61       	ori	r24, 0x10	; 16
 7a2:	8b bb       	out	0x1b, r24	; 27
	lcd_strobe_lcd_e();
 7a4:	0e 94 17 04 	call	0x82e	; 0x82e <lcd_strobe_lcd_e>
}
 7a8:	cf 91       	pop	r28
 7aa:	08 95       	ret

Disassembly of section .text.display_text:

000008d6 <display_text>:
inputs:
outputs:
notes:			According datasheet HD44780 table 12
Version :    	DMK, Initial code
*******************************************************************/
void display_text(char *str) {
 8d6:	cf 93       	push	r28
 8d8:	df 93       	push	r29
 8da:	ec 01       	movw	r28, r24
	// while(*str) {
	// 	lcd_write_data(*str++);
	// }

	// of met een for:
	for(;*str; str++){
 8dc:	03 c0       	rjmp	.+6      	; 0x8e4 <display_text+0xe>
		lcd_write_data(*str);
 8de:	0e 94 c4 03 	call	0x788	; 0x788 <lcd_write_data>
	// while(*str) {
	// 	lcd_write_data(*str++);
	// }

	// of met een for:
	for(;*str; str++){
 8e2:	21 96       	adiw	r28, 0x01	; 1
 8e4:	88 81       	ld	r24, Y
 8e6:	81 11       	cpse	r24, r1
 8e8:	fa cf       	rjmp	.-12     	; 0x8de <display_text+0x8>
		lcd_write_data(*str);
	}
}
 8ea:	df 91       	pop	r29
 8ec:	cf 91       	pop	r28
 8ee:	08 95       	ret

Disassembly of section .text.lcd_write_command:

000007ac <lcd_write_command>:
inputs:			byte - written to LCD
outputs:
notes:			According datasheet HD44780 table 12
Version :    	DMK, Initial code
*******************************************************************/
void lcd_write_command(unsigned char byte) {
 7ac:	cf 93       	push	r28
 7ae:	c8 2f       	mov	r28, r24
	// First nibble.
	PORTC = byte;
 7b0:	85 bb       	out	0x15, r24	; 21
	PORTA &= ~(1<<LCD_RS);
 7b2:	8b b3       	in	r24, 0x1b	; 27
 7b4:	8f 7e       	andi	r24, 0xEF	; 239
 7b6:	8b bb       	out	0x1b, r24	; 27
	lcd_strobe_lcd_e();
 7b8:	0e 94 17 04 	call	0x82e	; 0x82e <lcd_strobe_lcd_e>

	// Second nibble
	PORTC = (byte<<4);
 7bc:	c2 95       	swap	r28
 7be:	c0 7f       	andi	r28, 0xF0	; 240
 7c0:	c5 bb       	out	0x15, r28	; 21
	PORTA &= ~(1<<LCD_RS);
 7c2:	8b b3       	in	r24, 0x1b	; 27
 7c4:	8f 7e       	andi	r24, 0xEF	; 239
 7c6:	8b bb       	out	0x1b, r24	; 27
	lcd_strobe_lcd_e();
 7c8:	0e 94 17 04 	call	0x82e	; 0x82e <lcd_strobe_lcd_e>
}
 7cc:	cf 91       	pop	r28
 7ce:	08 95       	ret

Disassembly of section .text.lcd_clear:

000008f0 <lcd_clear>:


void lcd_clear() {
	lcd_write_command (0x01);						//Leeg display
 8f0:	81 e0       	ldi	r24, 0x01	; 1
 8f2:	0e 94 d6 03 	call	0x7ac	; 0x7ac <lcd_write_command>
	#else
		//round up by default
		__ticks_dc = (uint32_t)(ceil(fabs(__tmp)));
	#endif

	__builtin_avr_delay_cycles(__ticks_dc);
 8f6:	8f e9       	ldi	r24, 0x9F	; 159
 8f8:	9f e0       	ldi	r25, 0x0F	; 15
 8fa:	01 97       	sbiw	r24, 0x01	; 1
 8fc:	f1 f7       	brne	.-4      	; 0x8fa <lcd_clear+0xa>
 8fe:	00 c0       	rjmp	.+0      	; 0x900 <lcd_clear+0x10>
 900:	00 00       	nop
	_delay_ms(2);
	lcd_write_command (0x80);						//Cursor terug naar start
 902:	80 e8       	ldi	r24, 0x80	; 128
 904:	0e 94 d6 03 	call	0x7ac	; 0x7ac <lcd_write_command>
 908:	08 95       	ret

Disassembly of section .text.lcd_init:

0000086a <lcd_init>:
}

void lcd_init()
{
	DDRC = 0xFF;			// PORTD(7) output, PORTD(6:0) input
 86a:	8f ef       	ldi	r24, 0xFF	; 255
 86c:	84 bb       	out	0x14, r24	; 20
	PORTC = 0xFF;
 86e:	85 bb       	out	0x15, r24	; 21
	
	// Init LCD
	init_4bits_mode();
 870:	0e 94 1f 03 	call	0x63e	; 0x63e <init_4bits_mode>
 874:	8f e1       	ldi	r24, 0x1F	; 31
 876:	9e e4       	ldi	r25, 0x4E	; 78
 878:	01 97       	sbiw	r24, 0x01	; 1
 87a:	f1 f7       	brne	.-4      	; 0x878 <lcd_init+0xe>
 87c:	00 c0       	rjmp	.+0      	; 0x87e <lcd_init+0x14>
 87e:	00 00       	nop
	
	_delay_ms(10);
	
	lcd_clear();
 880:	0e 94 78 04 	call	0x8f0	; 0x8f0 <lcd_clear>
 884:	08 95       	ret

Disassembly of section .text.main_lcd_wrongCode:

000005b4 <main_lcd_wrongCode>:
	
	Timer_deInit();
	Buzzert_stop();
}

void main_lcd_wrongCode(){
 5b4:	cf 93       	push	r28
 5b6:	df 93       	push	r29
 5b8:	cd b7       	in	r28, 0x3d	; 61
 5ba:	de b7       	in	r29, 0x3e	; 62
 5bc:	65 97       	sbiw	r28, 0x15	; 21
 5be:	0f b6       	in	r0, 0x3f	; 63
 5c0:	f8 94       	cli
 5c2:	de bf       	out	0x3e, r29	; 62
 5c4:	0f be       	out	0x3f, r0	; 63
 5c6:	cd bf       	out	0x3d, r28	; 61
	lcd_clear();
 5c8:	0e 94 78 04 	call	0x8f0	; 0x8f0 <lcd_clear>
	char text[] = "wrong code try again";
 5cc:	22 e0       	ldi	r18, 0x02	; 2
 5ce:	31 e0       	ldi	r19, 0x01	; 1
 5d0:	40 e0       	ldi	r20, 0x00	; 0
 5d2:	85 e1       	ldi	r24, 0x15	; 21
 5d4:	f9 01       	movw	r30, r18
 5d6:	de 01       	movw	r26, r28
 5d8:	11 96       	adiw	r26, 0x01	; 1
 5da:	74 2f       	mov	r23, r20
 5dc:	0e 94 43 04 	call	0x886	; 0x886 <__movmemx_qi>
	display_text(text);
 5e0:	ce 01       	movw	r24, r28
 5e2:	01 96       	adiw	r24, 0x01	; 1
 5e4:	0e 94 6b 04 	call	0x8d6	; 0x8d6 <display_text>
}
 5e8:	65 96       	adiw	r28, 0x15	; 21
 5ea:	0f b6       	in	r0, 0x3f	; 63
 5ec:	f8 94       	cli
 5ee:	de bf       	out	0x3e, r29	; 62
 5f0:	0f be       	out	0x3f, r0	; 63
 5f2:	cd bf       	out	0x3d, r28	; 61
 5f4:	df 91       	pop	r29
 5f6:	cf 91       	pop	r28
 5f8:	08 95       	ret

Disassembly of section .text.main_alarm:

000005fa <main_alarm>:
#include "Timer/Timer.h"
#include "Buzzert/Buzzert.h"

#define  timeBeforeAlarm 20

void main_alarm(){
 5fa:	cf 93       	push	r28
 5fc:	df 93       	push	r29
 5fe:	00 d0       	rcall	.+0      	; 0x600 <main_alarm+0x6>
 600:	00 d0       	rcall	.+0      	; 0x602 <main_alarm+0x8>
 602:	00 d0       	rcall	.+0      	; 0x604 <main_alarm+0xa>
 604:	cd b7       	in	r28, 0x3d	; 61
 606:	de b7       	in	r29, 0x3e	; 62
	lcd_clear();
 608:	0e 94 78 04 	call	0x8f0	; 0x8f0 <lcd_clear>
	char text[] = "Alarm";
 60c:	27 e1       	ldi	r18, 0x17	; 23
 60e:	31 e0       	ldi	r19, 0x01	; 1
 610:	40 e0       	ldi	r20, 0x00	; 0
 612:	86 e0       	ldi	r24, 0x06	; 6
 614:	f9 01       	movw	r30, r18
 616:	de 01       	movw	r26, r28
 618:	11 96       	adiw	r26, 0x01	; 1
 61a:	74 2f       	mov	r23, r20
 61c:	0e 94 43 04 	call	0x886	; 0x886 <__movmemx_qi>
	display_text(text);
 620:	ce 01       	movw	r24, r28
 622:	01 96       	adiw	r24, 0x01	; 1
 624:	0e 94 6b 04 	call	0x8d6	; 0x8d6 <display_text>
	
	Buzzert_start();
 628:	0e 94 d0 04 	call	0x9a0	; 0x9a0 <Buzzert_start>
}
 62c:	26 96       	adiw	r28, 0x06	; 6
 62e:	0f b6       	in	r0, 0x3f	; 63
 630:	f8 94       	cli
 632:	de bf       	out	0x3e, r29	; 62
 634:	0f be       	out	0x3f, r0	; 63
 636:	cd bf       	out	0x3d, r28	; 61
 638:	df 91       	pop	r29
 63a:	cf 91       	pop	r28
 63c:	08 95       	ret

Disassembly of section .text.main_laserCallback:

0000047c <main_laserCallback>:

void main_laserCallback(uInt16 value){
 47c:	cf 93       	push	r28
 47e:	df 93       	push	r29
 480:	cd b7       	in	r28, 0x3d	; 61
 482:	de b7       	in	r29, 0x3e	; 62
 484:	2a 97       	sbiw	r28, 0x0a	; 10
 486:	0f b6       	in	r0, 0x3f	; 63
 488:	f8 94       	cli
 48a:	de bf       	out	0x3e, r29	; 62
 48c:	0f be       	out	0x3f, r0	; 63
 48e:	cd bf       	out	0x3d, r28	; 61
	lcd_clear();
 490:	0e 94 78 04 	call	0x8f0	; 0x8f0 <lcd_clear>
	char text[] = "Triggered";
 494:	2d e1       	ldi	r18, 0x1D	; 29
 496:	31 e0       	ldi	r19, 0x01	; 1
 498:	40 e0       	ldi	r20, 0x00	; 0
 49a:	8a e0       	ldi	r24, 0x0A	; 10
 49c:	f9 01       	movw	r30, r18
 49e:	de 01       	movw	r26, r28
 4a0:	11 96       	adiw	r26, 0x01	; 1
 4a2:	74 2f       	mov	r23, r20
 4a4:	0e 94 43 04 	call	0x886	; 0x886 <__movmemx_qi>
	display_text(text);
 4a8:	ce 01       	movw	r24, r28
 4aa:	01 96       	adiw	r24, 0x01	; 1
 4ac:	0e 94 6b 04 	call	0x8d6	; 0x8d6 <display_text>
	
	Timer_init(main_alarm, timeBeforeAlarm);
 4b0:	64 e1       	ldi	r22, 0x14	; 20
 4b2:	70 e0       	ldi	r23, 0x00	; 0
 4b4:	8d ef       	ldi	r24, 0xFD	; 253
 4b6:	92 e0       	ldi	r25, 0x02	; 2
 4b8:	0e 94 40 03 	call	0x680	; 0x680 <Timer_init>
}
 4bc:	2a 96       	adiw	r28, 0x0a	; 10
 4be:	0f b6       	in	r0, 0x3f	; 63
 4c0:	f8 94       	cli
 4c2:	de bf       	out	0x3e, r29	; 62
 4c4:	0f be       	out	0x3f, r0	; 63
 4c6:	cd bf       	out	0x3d, r28	; 61
 4c8:	df 91       	pop	r29
 4ca:	cf 91       	pop	r28
 4cc:	08 95       	ret

Disassembly of section .text.main_lcd_locked:

000004ce <main_lcd_locked>:

void main_start_laser(){
	ADCLaserIO_start(main_laserCallback);
}

void main_lcd_locked(){
 4ce:	cf 93       	push	r28
 4d0:	df 93       	push	r29
 4d2:	cd b7       	in	r28, 0x3d	; 61
 4d4:	de b7       	in	r29, 0x3e	; 62
 4d6:	27 97       	sbiw	r28, 0x07	; 7
 4d8:	0f b6       	in	r0, 0x3f	; 63
 4da:	f8 94       	cli
 4dc:	de bf       	out	0x3e, r29	; 62
 4de:	0f be       	out	0x3f, r0	; 63
 4e0:	cd bf       	out	0x3d, r28	; 61
	lcd_clear();
 4e2:	0e 94 78 04 	call	0x8f0	; 0x8f0 <lcd_clear>
	char text[] = "locked";
 4e6:	27 e2       	ldi	r18, 0x27	; 39
 4e8:	31 e0       	ldi	r19, 0x01	; 1
 4ea:	40 e0       	ldi	r20, 0x00	; 0
 4ec:	87 e0       	ldi	r24, 0x07	; 7
 4ee:	f9 01       	movw	r30, r18
 4f0:	de 01       	movw	r26, r28
 4f2:	11 96       	adiw	r26, 0x01	; 1
 4f4:	74 2f       	mov	r23, r20
 4f6:	0e 94 43 04 	call	0x886	; 0x886 <__movmemx_qi>
	display_text(text);
 4fa:	ce 01       	movw	r24, r28
 4fc:	01 96       	adiw	r24, 0x01	; 1
 4fe:	0e 94 6b 04 	call	0x8d6	; 0x8d6 <display_text>
	Timer_init(main_start_laser, 10);
 502:	6a e0       	ldi	r22, 0x0A	; 10
 504:	70 e0       	ldi	r23, 0x00	; 0
 506:	85 ed       	ldi	r24, 0xD5	; 213
 508:	94 e0       	ldi	r25, 0x04	; 4
 50a:	0e 94 40 03 	call	0x680	; 0x680 <Timer_init>
}
 50e:	27 96       	adiw	r28, 0x07	; 7
 510:	0f b6       	in	r0, 0x3f	; 63
 512:	f8 94       	cli
 514:	de bf       	out	0x3e, r29	; 62
 516:	0f be       	out	0x3f, r0	; 63
 518:	cd bf       	out	0x3d, r28	; 61
 51a:	df 91       	pop	r29
 51c:	cf 91       	pop	r28
 51e:	08 95       	ret

Disassembly of section .text.main_start_laser:

000009aa <main_start_laser>:
	
	Timer_init(main_alarm, timeBeforeAlarm);
}

void main_start_laser(){
	ADCLaserIO_start(main_laserCallback);
 9aa:	8e e3       	ldi	r24, 0x3E	; 62
 9ac:	92 e0       	ldi	r25, 0x02	; 2
 9ae:	0e 94 b7 02 	call	0x56e	; 0x56e <ADCLaserIO_start>
 9b2:	08 95       	ret

Disassembly of section .text.main_lcd_unlocked:

00000520 <main_lcd_unlocked>:
	char text[] = "locked";
	display_text(text);
	Timer_init(main_start_laser, 10);
}

void main_lcd_unlocked(){
 520:	cf 93       	push	r28
 522:	df 93       	push	r29
 524:	cd b7       	in	r28, 0x3d	; 61
 526:	de b7       	in	r29, 0x3e	; 62
 528:	29 97       	sbiw	r28, 0x09	; 9
 52a:	0f b6       	in	r0, 0x3f	; 63
 52c:	f8 94       	cli
 52e:	de bf       	out	0x3e, r29	; 62
 530:	0f be       	out	0x3f, r0	; 63
 532:	cd bf       	out	0x3d, r28	; 61
	lcd_clear();
 534:	0e 94 78 04 	call	0x8f0	; 0x8f0 <lcd_clear>
	char text[] = "unlocked";
 538:	2e e2       	ldi	r18, 0x2E	; 46
 53a:	31 e0       	ldi	r19, 0x01	; 1
 53c:	40 e0       	ldi	r20, 0x00	; 0
 53e:	89 e0       	ldi	r24, 0x09	; 9
 540:	f9 01       	movw	r30, r18
 542:	de 01       	movw	r26, r28
 544:	11 96       	adiw	r26, 0x01	; 1
 546:	74 2f       	mov	r23, r20
 548:	0e 94 43 04 	call	0x886	; 0x886 <__movmemx_qi>
	display_text(text);
 54c:	ce 01       	movw	r24, r28
 54e:	01 96       	adiw	r24, 0x01	; 1
 550:	0e 94 6b 04 	call	0x8d6	; 0x8d6 <display_text>
	
	Timer_deInit();
 554:	0e 94 e2 04 	call	0x9c4	; 0x9c4 <Timer_deInit>
	Buzzert_stop();
 558:	0e 94 e6 04 	call	0x9cc	; 0x9cc <Buzzert_stop>
}
 55c:	29 96       	adiw	r28, 0x09	; 9
 55e:	0f b6       	in	r0, 0x3f	; 63
 560:	f8 94       	cli
 562:	de bf       	out	0x3e, r29	; 62
 564:	0f be       	out	0x3f, r0	; 63
 566:	cd bf       	out	0x3d, r28	; 61
 568:	df 91       	pop	r29
 56a:	cf 91       	pop	r28
 56c:	08 95       	ret

Disassembly of section .text.main:

000006f8 <main>:
}


int main(void)
{
	lcd_init();
 6f8:	0e 94 35 04 	call	0x86a	; 0x86a <lcd_init>
	
	DDRB = 0xFF;					// set PORTB for compare output
 6fc:	8f ef       	ldi	r24, 0xFF	; 255
 6fe:	87 bb       	out	0x17, r24	; 23
	DDRA = 0xFF;					// set PORTA for output in main program
 700:	8a bb       	out	0x1a, r24	; 26
	Buzzert_init();
 702:	0e 94 b1 04 	call	0x962	; 0x962 <Buzzert_init>
	Buzzert_start();
 706:	0e 94 d0 04 	call	0x9a0	; 0x9a0 <Buzzert_start>
	
	Eight7seg_Init();
 70a:	0e 94 e5 01 	call	0x3ca	; 0x3ca <Eight7seg_Init>
	Keypad_init(main_lcd_locked, main_lcd_unlocked, main_lcd_wrongCode);
 70e:	4a ed       	ldi	r20, 0xDA	; 218
 710:	52 e0       	ldi	r21, 0x02	; 2
 712:	60 e9       	ldi	r22, 0x90	; 144
 714:	72 e0       	ldi	r23, 0x02	; 2
 716:	87 e6       	ldi	r24, 0x67	; 103
 718:	92 e0       	ldi	r25, 0x02	; 2
 71a:	0e 94 f8 03 	call	0x7f0	; 0x7f0 <Keypad_init>
	
	main_lcd_unlocked();
 71e:	0e 94 90 02 	call	0x520	; 0x520 <main_lcd_unlocked>
	
	while(1){
		Keypad_checkKey();
 722:	0e 94 12 02 	call	0x424	; 0x424 <Keypad_checkKey>
		waitFunction(100);
 726:	84 e6       	ldi	r24, 0x64	; 100
 728:	90 e0       	ldi	r25, 0x00	; 0
 72a:	0e 94 26 04 	call	0x84c	; 0x84c <waitFunction>
 72e:	f9 cf       	rjmp	.-14     	; 0x722 <main+0x2a>

Disassembly of section .text.spi_masterInit:

00000922 <spi_masterInit>:
#define SPI_SS		0						// PB0: spi Pin Slave Select
 

void spi_masterInit(void)
{
	DDR_SPI = 0xff;							// All pins output: MOSI, SCK, SS, SS_display as output
 922:	8f ef       	ldi	r24, 0xFF	; 255
 924:	87 bb       	out	0x17, r24	; 23
	DDR_SPI &= ~BIT(SPI_MISO);				// 	except: MISO input
 926:	87 b3       	in	r24, 0x17	; 23
 928:	87 7f       	andi	r24, 0xF7	; 247
 92a:	87 bb       	out	0x17, r24	; 23
	PORT_SPI |= BIT(SPI_SS);				// SS_ADC == 1: deselect slave
 92c:	88 b3       	in	r24, 0x18	; 24
 92e:	81 60       	ori	r24, 0x01	; 1
 930:	88 bb       	out	0x18, r24	; 24
	SPCR = (1<<SPE)|(1<<MSTR)|(1<<SPR1);	// or: SPCR = 0b11010010;
 932:	82 e5       	ldi	r24, 0x52	; 82
 934:	8d b9       	out	0x0d, r24	; 13
 936:	08 95       	ret

Disassembly of section .text.spi_write:

000009bc <spi_write>:


// Write a byte from master to slave
void spi_write( unsigned char data )
{
	SPDR = data;							// Load byte to Data register --> starts transmission
 9bc:	8f b9       	out	0x0f, r24	; 15
	while( !(SPSR & BIT(SPIF)) ); 			// Wait for transmission complete
 9be:	77 9b       	sbis	0x0e, 7	; 14
 9c0:	fe cf       	rjmp	.-4      	; 0x9be <spi_write+0x2>
}
 9c2:	08 95       	ret

Disassembly of section .text.spi_slaveSelect:

0000090a <spi_slaveSelect>:
}

// Select device on pinnumer PORTB
void spi_slaveSelect(unsigned char chipNumber)
{
	PORTB &= ~BIT(chipNumber);
 90a:	98 b3       	in	r25, 0x18	; 24
 90c:	21 e0       	ldi	r18, 0x01	; 1
 90e:	30 e0       	ldi	r19, 0x00	; 0
 910:	02 c0       	rjmp	.+4      	; 0x916 <spi_slaveSelect+0xc>
 912:	22 0f       	add	r18, r18
 914:	33 1f       	adc	r19, r19
 916:	8a 95       	dec	r24
 918:	e2 f7       	brpl	.-8      	; 0x912 <spi_slaveSelect+0x8>
 91a:	20 95       	com	r18
 91c:	29 23       	and	r18, r25
 91e:	28 bb       	out	0x18, r18	; 24
 920:	08 95       	ret

Disassembly of section .text.spi_slaveDeSelect:

00000938 <spi_slaveDeSelect>:

// Deselect device on pinnumer PORTB
void spi_slaveDeSelect(unsigned char chipNumber)
{

	PORTB |= BIT(chipNumber);
 938:	98 b3       	in	r25, 0x18	; 24
 93a:	21 e0       	ldi	r18, 0x01	; 1
 93c:	30 e0       	ldi	r19, 0x00	; 0
 93e:	02 c0       	rjmp	.+4      	; 0x944 <spi_slaveDeSelect+0xc>
 940:	22 0f       	add	r18, r18
 942:	33 1f       	adc	r19, r19
 944:	8a 95       	dec	r24
 946:	e2 f7       	brpl	.-8      	; 0x940 <spi_slaveDeSelect+0x8>
 948:	29 2b       	or	r18, r25
 94a:	28 bb       	out	0x18, r18	; 24
 94c:	08 95       	ret

Disassembly of section .text.Timer_init:

00000680 <Timer_init>:
static int beepOn = 0;

static void (*alarmCallback)(void) = NULL;

void Timer_init(void (*_alarmCallback)(void), int _remainingTime){
	alarmCallback = _alarmCallback;
 680:	90 93 1f 01 	sts	0x011F, r25	; 0x80011f <alarmCallback+0x1>
 684:	80 93 1e 01 	sts	0x011E, r24	; 0x80011e <alarmCallback>
	remainingTime = _remainingTime;
 688:	cb 01       	movw	r24, r22
 68a:	77 0f       	add	r23, r23
 68c:	aa 0b       	sbc	r26, r26
 68e:	bb 0b       	sbc	r27, r27
 690:	80 93 0a 01 	sts	0x010A, r24	; 0x80010a <remainingTime>
 694:	90 93 0b 01 	sts	0x010B, r25	; 0x80010b <remainingTime+0x1>
 698:	a0 93 0c 01 	sts	0x010C, r26	; 0x80010c <remainingTime+0x2>
 69c:	b0 93 0d 01 	sts	0x010D, r27	; 0x80010d <remainingTime+0x3>
	msCount = 1000;
 6a0:	88 ee       	ldi	r24, 0xE8	; 232
 6a2:	93 e0       	ldi	r25, 0x03	; 3
 6a4:	90 93 01 01 	sts	0x0101, r25	; 0x800101 <__DATA_REGION_ORIGIN__+0x1>
 6a8:	80 93 00 01 	sts	0x0100, r24	; 0x800100 <__DATA_REGION_ORIGIN__>
	OCR2 = 150; // Compare value of counter 2
 6ac:	86 e9       	ldi	r24, 0x96	; 150
 6ae:	83 bd       	out	0x23, r24	; 35
	TIMSK |= BIT(7); // T2 compare match interrupt enable
 6b0:	87 b7       	in	r24, 0x37	; 55
 6b2:	80 68       	ori	r24, 0x80	; 128
 6b4:	87 bf       	out	0x37, r24	; 55
	sei(); // turn_on intr all
 6b6:	78 94       	sei
	TCCR2 = 0b00001011; // Initialize T2: timer, prescaler=32, compare output disconnected,CTC,RUN
 6b8:	8b e0       	ldi	r24, 0x0B	; 11
 6ba:	85 bd       	out	0x25, r24	; 37
 6bc:	08 95       	ret

Disassembly of section .text.Timer_deInit:

000009c4 <Timer_deInit>:
}

void Timer_deInit(){
	TIMSK &= ~(BIT(7));		// T1 compare match A interrupt enable
 9c4:	87 b7       	in	r24, 0x37	; 55
 9c6:	8f 77       	andi	r24, 0x7F	; 127
 9c8:	87 bf       	out	0x37, r24	; 55
 9ca:	08 95       	ret

Disassembly of section .text.__vector_9:

00000140 <__vector_9>:
}

ISR( TIMER2_COMP_vect ) {
 140:	1f 92       	push	r1
 142:	0f 92       	push	r0
 144:	0f b6       	in	r0, 0x3f	; 63
 146:	0f 92       	push	r0
 148:	11 24       	eor	r1, r1
 14a:	0b b6       	in	r0, 0x3b	; 59
 14c:	0f 92       	push	r0
 14e:	2f 93       	push	r18
 150:	3f 93       	push	r19
 152:	4f 93       	push	r20
 154:	5f 93       	push	r21
 156:	6f 93       	push	r22
 158:	7f 93       	push	r23
 15a:	8f 93       	push	r24
 15c:	9f 93       	push	r25
 15e:	af 93       	push	r26
 160:	bf 93       	push	r27
 162:	ef 93       	push	r30
 164:	ff 93       	push	r31
	msCount--; // Increment ms counter
 166:	80 91 00 01 	lds	r24, 0x0100	; 0x800100 <__DATA_REGION_ORIGIN__>
 16a:	90 91 01 01 	lds	r25, 0x0101	; 0x800101 <__DATA_REGION_ORIGIN__+0x1>
 16e:	01 97       	sbiw	r24, 0x01	; 1
 170:	90 93 01 01 	sts	0x0101, r25	; 0x800101 <__DATA_REGION_ORIGIN__+0x1>
 174:	80 93 00 01 	sts	0x0100, r24	; 0x800100 <__DATA_REGION_ORIGIN__>
	if(msCount <= 0){
 178:	80 91 00 01 	lds	r24, 0x0100	; 0x800100 <__DATA_REGION_ORIGIN__>
 17c:	90 91 01 01 	lds	r25, 0x0101	; 0x800101 <__DATA_REGION_ORIGIN__+0x1>
 180:	18 16       	cp	r1, r24
 182:	19 06       	cpc	r1, r25
 184:	44 f1       	brlt	.+80     	; 0x1d6 <__vector_9+0x96>
		msCount = 1000;
 186:	88 ee       	ldi	r24, 0xE8	; 232
 188:	93 e0       	ldi	r25, 0x03	; 3
 18a:	90 93 01 01 	sts	0x0101, r25	; 0x800101 <__DATA_REGION_ORIGIN__+0x1>
 18e:	80 93 00 01 	sts	0x0100, r24	; 0x800100 <__DATA_REGION_ORIGIN__>
		remainingTime--;
 192:	80 91 0a 01 	lds	r24, 0x010A	; 0x80010a <remainingTime>
 196:	90 91 0b 01 	lds	r25, 0x010B	; 0x80010b <remainingTime+0x1>
 19a:	a0 91 0c 01 	lds	r26, 0x010C	; 0x80010c <remainingTime+0x2>
 19e:	b0 91 0d 01 	lds	r27, 0x010D	; 0x80010d <remainingTime+0x3>
 1a2:	01 97       	sbiw	r24, 0x01	; 1
 1a4:	a1 09       	sbc	r26, r1
 1a6:	b1 09       	sbc	r27, r1
 1a8:	80 93 0a 01 	sts	0x010A, r24	; 0x80010a <remainingTime>
 1ac:	90 93 0b 01 	sts	0x010B, r25	; 0x80010b <remainingTime+0x1>
 1b0:	a0 93 0c 01 	sts	0x010C, r26	; 0x80010c <remainingTime+0x2>
 1b4:	b0 93 0d 01 	sts	0x010D, r27	; 0x80010d <remainingTime+0x3>
		if(remainingTime % 2){
 1b8:	80 91 0a 01 	lds	r24, 0x010A	; 0x80010a <remainingTime>
 1bc:	90 91 0b 01 	lds	r25, 0x010B	; 0x80010b <remainingTime+0x1>
 1c0:	a0 91 0c 01 	lds	r26, 0x010C	; 0x80010c <remainingTime+0x2>
 1c4:	b0 91 0d 01 	lds	r27, 0x010D	; 0x80010d <remainingTime+0x3>
 1c8:	80 ff       	sbrs	r24, 0
 1ca:	03 c0       	rjmp	.+6      	; 0x1d2 <__vector_9+0x92>
			Buzzert_start();
 1cc:	0e 94 d0 04 	call	0x9a0	; 0x9a0 <Buzzert_start>
 1d0:	02 c0       	rjmp	.+4      	; 0x1d6 <__vector_9+0x96>
		}else{
			Buzzert_stop();
 1d2:	0e 94 e6 04 	call	0x9cc	; 0x9cc <Buzzert_stop>
		}
	}
	if ( remainingTime < 1) {
 1d6:	80 91 0a 01 	lds	r24, 0x010A	; 0x80010a <remainingTime>
 1da:	90 91 0b 01 	lds	r25, 0x010B	; 0x80010b <remainingTime+0x1>
 1de:	a0 91 0c 01 	lds	r26, 0x010C	; 0x80010c <remainingTime+0x2>
 1e2:	b0 91 0d 01 	lds	r27, 0x010D	; 0x80010d <remainingTime+0x3>
 1e6:	18 16       	cp	r1, r24
 1e8:	19 06       	cpc	r1, r25
 1ea:	1a 06       	cpc	r1, r26
 1ec:	1b 06       	cpc	r1, r27
 1ee:	3c f0       	brlt	.+14     	; 0x1fe <__vector_9+0xbe>
		Timer_deInit();
 1f0:	0e 94 e2 04 	call	0x9c4	; 0x9c4 <Timer_deInit>
		alarmCallback();
 1f4:	e0 91 1e 01 	lds	r30, 0x011E	; 0x80011e <alarmCallback>
 1f8:	f0 91 1f 01 	lds	r31, 0x011F	; 0x80011f <alarmCallback+0x1>
 1fc:	09 95       	icall
	}
}
 1fe:	ff 91       	pop	r31
 200:	ef 91       	pop	r30
 202:	bf 91       	pop	r27
 204:	af 91       	pop	r26
 206:	9f 91       	pop	r25
 208:	8f 91       	pop	r24
 20a:	7f 91       	pop	r23
 20c:	6f 91       	pop	r22
 20e:	5f 91       	pop	r21
 210:	4f 91       	pop	r20
 212:	3f 91       	pop	r19
 214:	2f 91       	pop	r18
 216:	0f 90       	pop	r0
 218:	0b be       	out	0x3b, r0	; 59
 21a:	0f 90       	pop	r0
 21c:	0f be       	out	0x3f, r0	; 63
 21e:	0f 90       	pop	r0
 220:	1f 90       	pop	r1
 222:	18 95       	reti

Disassembly of section .text.waitFunction:

0000084c <waitFunction>:
notes:			Busy wait, not very accurate. Make sure (external)
				clock value is set. This is used by _delay_ms inside
				until/delay.h
***********************/
{
	for (int i=0; i<ms; i++) {
 84c:	20 e0       	ldi	r18, 0x00	; 0
 84e:	30 e0       	ldi	r19, 0x00	; 0
 850:	08 c0       	rjmp	.+16     	; 0x862 <waitFunction+0x16>
 852:	ef ec       	ldi	r30, 0xCF	; 207
 854:	f7 e0       	ldi	r31, 0x07	; 7
 856:	31 97       	sbiw	r30, 0x01	; 1
 858:	f1 f7       	brne	.-4      	; 0x856 <waitFunction+0xa>
 85a:	00 c0       	rjmp	.+0      	; 0x85c <waitFunction+0x10>
 85c:	00 00       	nop
 85e:	2f 5f       	subi	r18, 0xFF	; 255
 860:	3f 4f       	sbci	r19, 0xFF	; 255
 862:	28 17       	cp	r18, r24
 864:	39 07       	cpc	r19, r25
 866:	ac f3       	brlt	.-22     	; 0x852 <waitFunction+0x6>
		_delay_ms( 1 );		// library function (max 30 ms at 8MHz)
	}
}
 868:	08 95       	ret

Disassembly of section .text.libgcc.div:

00000760 <__udivmodhi4>:
 760:	aa 1b       	sub	r26, r26
 762:	bb 1b       	sub	r27, r27
 764:	51 e1       	ldi	r21, 0x11	; 17
 766:	07 c0       	rjmp	.+14     	; 0x776 <__udivmodhi4_ep>

00000768 <__udivmodhi4_loop>:
 768:	aa 1f       	adc	r26, r26
 76a:	bb 1f       	adc	r27, r27
 76c:	a6 17       	cp	r26, r22
 76e:	b7 07       	cpc	r27, r23
 770:	10 f0       	brcs	.+4      	; 0x776 <__udivmodhi4_ep>
 772:	a6 1b       	sub	r26, r22
 774:	b7 0b       	sbc	r27, r23

00000776 <__udivmodhi4_ep>:
 776:	88 1f       	adc	r24, r24
 778:	99 1f       	adc	r25, r25
 77a:	5a 95       	dec	r21
 77c:	a9 f7       	brne	.-22     	; 0x768 <__udivmodhi4_loop>
 77e:	80 95       	com	r24
 780:	90 95       	com	r25
 782:	bc 01       	movw	r22, r24
 784:	cd 01       	movw	r24, r26
 786:	08 95       	ret

Disassembly of section .text.libgcc:

00000974 <__xload_2>:
 974:	57 fd       	sbrc	r21, 7
 976:	04 c0       	rjmp	.+8      	; 0x980 <__xload_2+0xc>
 978:	5b bf       	out	0x3b, r21	; 59
 97a:	67 91       	elpm	r22, Z+
 97c:	77 91       	elpm	r23, Z+
 97e:	08 95       	ret
 980:	61 91       	ld	r22, Z+
 982:	71 91       	ld	r23, Z+
 984:	08 95       	ret

Disassembly of section .text.libgcc:

00000886 <__movmemx_qi>:
 886:	99 27       	eor	r25, r25

00000888 <__movmemx_hi>:
 888:	77 fd       	sbrc	r23, 7
 88a:	06 c0       	rjmp	.+12     	; 0x898 <__movmemx_hi+0x10>
 88c:	7b bf       	out	0x3b, r23	; 59
 88e:	07 90       	elpm	r0, Z+
 890:	0d 92       	st	X+, r0
 892:	01 97       	sbiw	r24, 0x01	; 1
 894:	e1 f7       	brne	.-8      	; 0x88e <__movmemx_hi+0x6>
 896:	08 95       	ret
 898:	01 90       	ld	r0, Z+
 89a:	0d 92       	st	X+, r0
 89c:	01 97       	sbiw	r24, 0x01	; 1
 89e:	e1 f7       	brne	.-8      	; 0x898 <__movmemx_hi+0x10>
 8a0:	08 95       	ret
